target datalayout = "e-m:e-p270:32:32-p271:32:32-p272:64:64-i64:64-i128:128-f80:128-n8:16:32:64-S128"
target triple = "x86_64-pc-linux-gnu"

%"class.marisa::Keyset" = type { %"class.marisa::scoped_array", i64, i64, %"class.marisa::scoped_array", i64, i64, %"class.marisa::scoped_array.0", i64, i64, ptr, i64, i64, i64 }
%"class.marisa::scoped_array" = type { ptr }
%"class.marisa::scoped_array.0" = type { ptr }
%"class.marisa::scoped_array.2" = type { ptr }
%"class.marisa::Key" = type { ptr, i32, %"union.marisa::Key::Union" }
%"union.marisa::Key::Union" = type { i32 }
%"class.marisa::scoped_array.1" = type { ptr }
%"class.marisa::Exception" = type { %"class.std::exception", ptr, i32, i32, ptr }
%"class.std::exception" = type { ptr }

@.str = private unnamed_addr constant [130 x i8] c"generated/home/dtcxzyw/WorkSpace/Projects/compilers/llvm-opt-benchmark/bench/opencc/OpenCC/deps/marisa-0.2.6/lib/marisa/keyset.cc\00", align 1
@_ZTIN6marisa9ExceptionE = linkonce_odr constant { ptr, ptr, ptr } { ptr getelementptr inbounds (ptr, ptr @_ZTVN10__cxxabiv120__si_class_type_infoE, i64 2), ptr @_ZTSN6marisa9ExceptionE, ptr @_ZTISt9exception }, comdat, align 8
@.str.2 = private unnamed_addr constant [184 x i8] c"generated/home/dtcxzyw/WorkSpace/Projects/compilers/llvm-opt-benchmark/bench/opencc/OpenCC/deps/marisa-0.2.6/lib/marisa/keyset.cc:61: MARISA_NULL_ERROR: (ptr == NULL) && (length != 0)\00", align 1
@.str.3 = private unnamed_addr constant [180 x i8] c"generated/home/dtcxzyw/WorkSpace/Projects/compilers/llvm-opt-benchmark/bench/opencc/OpenCC/deps/marisa-0.2.6/lib/marisa/keyset.cc:62: MARISA_SIZE_ERROR: length > MARISA_UINT32_MAX\00", align 1
@_ZTVN6marisa9ExceptionE = linkonce_odr unnamed_addr constant { [5 x ptr] } { [5 x ptr] [ptr null, ptr @_ZTIN6marisa9ExceptionE, ptr @_ZN6marisa9ExceptionD2Ev, ptr @_ZN6marisa9ExceptionD0Ev, ptr @_ZNK6marisa9Exception4whatEv] }, comdat, align 8
@_ZTVSt9exception = external unnamed_addr constant { [5 x ptr] }, align 8

; Function Attrs: mustprogress nounwind uwtable
define linkonce_odr noundef ptr @_ZNK6marisa12scoped_arrayIcE3getEv(ptr noundef nonnull align 8 dereferenceable(8) %0) #1 comdat align 2 {
  %2 = alloca ptr, align 8
  store ptr %0, ptr %2, align 8
  %3 = load ptr, ptr %2, align 8
  %4 = getelementptr inbounds %"class.marisa::scoped_array.2", ptr %3, i32 0, i32 0
  %5 = load ptr, ptr %4, align 8
  ret ptr %5
}

; Function Attrs: mustprogress nounwind uwtable
define linkonce_odr noundef nonnull align 8 dereferenceable(8) ptr @_ZNK6marisa12scoped_arrayINS0_IcEEEixEm(ptr noundef nonnull align 8 dereferenceable(8) %0, i64 noundef %1) #1 comdat align 2 {
  %3 = alloca ptr, align 8
  %4 = alloca i64, align 8
  store ptr %0, ptr %3, align 8
  store i64 %1, ptr %4, align 8
  %5 = load ptr, ptr %3, align 8
  %6 = getelementptr inbounds %"class.marisa::scoped_array", ptr %5, i32 0, i32 0
  %7 = load ptr, ptr %6, align 8
  %8 = load i64, ptr %4, align 8
  %9 = getelementptr inbounds %"class.marisa::scoped_array.2", ptr %7, i64 %8
  ret ptr %9
}

; Function Attrs: mustprogress nounwind uwtable
define linkonce_odr void @_ZNSt9exceptionC2Ev(ptr noundef nonnull align 8 dereferenceable(8) %0) unnamed_addr #1 comdat align 2 {
  %2 = alloca ptr, align 8
  store ptr %0, ptr %2, align 8
  %3 = load ptr, ptr %2, align 8
  store ptr getelementptr inbounds inrange(-16, 24) ({ [5 x ptr] }, ptr @_ZTVSt9exception, i32 0, i32 0, i32 2), ptr %3, align 8
  ret void
}

; Function Attrs: mustprogress nounwind uwtable
define linkonce_odr void @_ZN6marisa3Key10set_weightEf(ptr noundef nonnull align 8 dereferenceable(16) %0, float noundef %1) #1 comdat align 2 {
  %3 = alloca ptr, align 8
  %4 = alloca float, align 4
  store ptr %0, ptr %3, align 8
  store float %1, ptr %4, align 4
  %5 = load ptr, ptr %3, align 8
  %6 = load float, ptr %4, align 4
  %7 = getelementptr inbounds %"class.marisa::Key", ptr %5, i32 0, i32 2
  store float %6, ptr %7, align 4
  ret void
}

; Function Attrs: mustprogress nounwind uwtable
define linkonce_odr void @_ZN6marisa3Key7set_strEPKcm(ptr noundef nonnull align 8 dereferenceable(16) %0, ptr noundef %1, i64 noundef %2) #1 comdat align 2 {
  %4 = alloca ptr, align 8
  %5 = alloca ptr, align 8
  %6 = alloca i64, align 8
  store ptr %0, ptr %4, align 8
  store ptr %1, ptr %5, align 8
  store i64 %2, ptr %6, align 8
  %7 = load ptr, ptr %4, align 8
  %8 = load ptr, ptr %5, align 8
  %9 = getelementptr inbounds %"class.marisa::Key", ptr %7, i32 0, i32 0
  store ptr %8, ptr %9, align 8
  %10 = load i64, ptr %6, align 8
  %11 = trunc i64 %10 to i32
  %12 = getelementptr inbounds %"class.marisa::Key", ptr %7, i32 0, i32 1
  store i32 %11, ptr %12, align 8
  ret void
}

; Function Attrs: mustprogress nounwind uwtable
define linkonce_odr noundef nonnull align 8 dereferenceable(16) ptr @_ZNK6marisa12scoped_arrayINS_3KeyEEixEm(ptr noundef nonnull align 8 dereferenceable(8) %0, i64 noundef %1) #1 comdat align 2 {
  %3 = alloca ptr, align 8
  %4 = alloca i64, align 8
  store ptr %0, ptr %3, align 8
  store i64 %1, ptr %4, align 8
  %5 = load ptr, ptr %3, align 8
  %6 = getelementptr inbounds %"class.marisa::scoped_array.1", ptr %5, i32 0, i32 0
  %7 = load ptr, ptr %6, align 8
  %8 = load i64, ptr %4, align 8
  %9 = getelementptr inbounds %"class.marisa::Key", ptr %7, i64 %8
  ret ptr %9
}

; Function Attrs: mustprogress nounwind uwtable
define linkonce_odr noundef nonnull align 8 dereferenceable(8) ptr @_ZNK6marisa12scoped_arrayINS0_INS_3KeyEEEEixEm(ptr noundef nonnull align 8 dereferenceable(8) %0, i64 noundef %1) #1 comdat align 2 {
  %3 = alloca ptr, align 8
  %4 = alloca i64, align 8
  store ptr %0, ptr %3, align 8
  store i64 %1, ptr %4, align 8
  %5 = load ptr, ptr %3, align 8
  %6 = getelementptr inbounds %"class.marisa::scoped_array.0", ptr %5, i32 0, i32 0
  %7 = load ptr, ptr %6, align 8
  %8 = load i64, ptr %4, align 8
  %9 = getelementptr inbounds %"class.marisa::scoped_array.1", ptr %7, i64 %8
  ret ptr %9
}

; Function Attrs: mustprogress uwtable
define noundef ptr @_ZN6marisa6Keyset7reserveEm(ptr noundef nonnull align 8 dereferenceable(104) %0, i64 noundef %1) #0 align 2 {
  %3 = alloca ptr, align 8
  %4 = alloca ptr, align 8
  %5 = alloca i64, align 8
  store ptr %0, ptr %4, align 8
  store i64 %1, ptr %5, align 8
  %6 = load ptr, ptr %4, align 8
  %7 = getelementptr inbounds %"class.marisa::Keyset", ptr %6, i32 0, i32 11
  %8 = load i64, ptr %7, align 8
  %9 = udiv i64 %8, 256
  %10 = getelementptr inbounds %"class.marisa::Keyset", ptr %6, i32 0, i32 7
  %11 = load i64, ptr %10, align 8
  %12 = icmp eq i64 %9, %11
  br i1 %12, label %13, label %14

13:                                               ; preds = %2
  call void @_ZN6marisa6Keyset16append_key_blockEv(ptr noundef nonnull align 8 dereferenceable(104) %6)
  br label %14

14:                                               ; preds = %13, %2
  %15 = load i64, ptr %5, align 8
  %16 = icmp ugt i64 %15, 1024
  br i1 %16, label %17, label %25

17:                                               ; preds = %14
  %18 = load i64, ptr %5, align 8
  call void @_ZN6marisa6Keyset18append_extra_blockEm(ptr noundef nonnull align 8 dereferenceable(104) %6, i64 noundef %18)
  %19 = getelementptr inbounds %"class.marisa::Keyset", ptr %6, i32 0, i32 3
  %20 = getelementptr inbounds %"class.marisa::Keyset", ptr %6, i32 0, i32 4
  %21 = load i64, ptr %20, align 8
  %22 = sub i64 %21, 1
  %23 = call noundef nonnull align 8 dereferenceable(8) ptr @_ZNK6marisa12scoped_arrayINS0_IcEEEixEm(ptr noundef nonnull align 8 dereferenceable(8) %19, i64 noundef %22)
  %24 = call noundef ptr @_ZNK6marisa12scoped_arrayIcE3getEv(ptr noundef nonnull align 8 dereferenceable(8) %23)
  store ptr %24, ptr %3, align 8
  br label %45

25:                                               ; preds = %14
  %26 = load i64, ptr %5, align 8
  %27 = getelementptr inbounds %"class.marisa::Keyset", ptr %6, i32 0, i32 10
  %28 = load i64, ptr %27, align 8
  %29 = icmp ugt i64 %26, %28
  br i1 %29, label %30, label %31

30:                                               ; preds = %25
  call void @_ZN6marisa6Keyset17append_base_blockEv(ptr noundef nonnull align 8 dereferenceable(104) %6)
  br label %31

31:                                               ; preds = %30, %25
  %32 = load i64, ptr %5, align 8
  %33 = getelementptr inbounds %"class.marisa::Keyset", ptr %6, i32 0, i32 9
  %34 = load ptr, ptr %33, align 8
  %35 = getelementptr inbounds i8, ptr %34, i64 %32
  store ptr %35, ptr %33, align 8
  %36 = load i64, ptr %5, align 8
  %37 = getelementptr inbounds %"class.marisa::Keyset", ptr %6, i32 0, i32 10
  %38 = load i64, ptr %37, align 8
  %39 = sub i64 %38, %36
  store i64 %39, ptr %37, align 8
  %40 = getelementptr inbounds %"class.marisa::Keyset", ptr %6, i32 0, i32 9
  %41 = load ptr, ptr %40, align 8
  %42 = load i64, ptr %5, align 8
  %43 = sub i64 0, %42
  %44 = getelementptr inbounds i8, ptr %41, i64 %43
  store ptr %44, ptr %3, align 8
  br label %45

45:                                               ; preds = %31, %17
  %46 = load ptr, ptr %3, align 8
  ret ptr %46
}

; Function Attrs: mustprogress nounwind uwtable
define linkonce_odr void @_ZN6marisa9ExceptionC2EPKci18marisa_error_code_S2_(ptr noundef nonnull align 8 dereferenceable(32) %0, ptr noundef %1, i32 noundef %2, i32 noundef %3, ptr noundef %4) unnamed_addr #1 comdat align 2 {
  %6 = alloca ptr, align 8
  %7 = alloca ptr, align 8
  %8 = alloca i32, align 4
  %9 = alloca i32, align 4
  %10 = alloca ptr, align 8
  store ptr %0, ptr %6, align 8
  store ptr %1, ptr %7, align 8
  store i32 %2, ptr %8, align 4
  store i32 %3, ptr %9, align 4
  store ptr %4, ptr %10, align 8
  %11 = load ptr, ptr %6, align 8
  call void @_ZNSt9exceptionC2Ev(ptr noundef nonnull align 8 dereferenceable(8) %11) #7
  store ptr getelementptr inbounds inrange(-16, 24) ({ [5 x ptr] }, ptr @_ZTVN6marisa9ExceptionE, i32 0, i32 0, i32 2), ptr %11, align 8
  %12 = getelementptr inbounds %"class.marisa::Exception", ptr %11, i32 0, i32 1
  %13 = load ptr, ptr %7, align 8
  store ptr %13, ptr %12, align 8
  %14 = getelementptr inbounds %"class.marisa::Exception", ptr %11, i32 0, i32 2
  %15 = load i32, ptr %8, align 4
  store i32 %15, ptr %14, align 8
  %16 = getelementptr inbounds %"class.marisa::Exception", ptr %11, i32 0, i32 3
  %17 = load i32, ptr %9, align 4
  store i32 %17, ptr %16, align 4
  %18 = getelementptr inbounds %"class.marisa::Exception", ptr %11, i32 0, i32 4
  %19 = load ptr, ptr %10, align 8
  store ptr %19, ptr %18, align 8
  ret void
}

; Function Attrs: mustprogress uwtable
define void @_ZN6marisa6Keyset9push_backEPKcmf(ptr noundef nonnull align 8 dereferenceable(104) %0, ptr noundef %1, i64 noundef %2, float noundef %3) #0 align 2 personality ptr @__gxx_personality_v0 {
  %5 = alloca ptr, align 8
  %6 = alloca ptr, align 8
  %7 = alloca i64, align 8
  %8 = alloca float, align 4
  %9 = alloca ptr, align 8
  %10 = alloca i1, align 1
  %11 = alloca ptr, align 8
  %12 = alloca i32, align 4
  %13 = alloca ptr, align 8
  %14 = alloca i1, align 1
  %15 = alloca ptr, align 8
  %16 = alloca i64, align 8
  %17 = alloca ptr, align 8
  store ptr %0, ptr %5, align 8
  store ptr %1, ptr %6, align 8
  store i64 %2, ptr %7, align 8
  store float %3, ptr %8, align 4
  %18 = load ptr, ptr %5, align 8
  %19 = load ptr, ptr %6, align 8
  %20 = icmp eq ptr %19, null
  store i1 false, ptr %10, align 1
  br i1 %20, label %21, label %28

21:                                               ; preds = %4
  %22 = load i64, ptr %7, align 8
  %23 = icmp ne i64 %22, 0
  br i1 %23, label %24, label %28

24:                                               ; preds = %21
  %25 = call ptr @__cxa_allocate_exception(i64 32) #7
  store ptr %25, ptr %9, align 8
  store i1 true, ptr %10, align 1
  invoke void @_ZN6marisa9ExceptionC2EPKci18marisa_error_code_S2_(ptr noundef nonnull align 8 dereferenceable(32) %25, ptr noundef @.str, i32 noundef 61, i32 noundef 2, ptr noundef @.str.2)
          to label %26 unwind label %53

26:                                               ; preds = %24
  call void @__cxa_throw(ptr %25, ptr @_ZTIN6marisa9ExceptionE, ptr @_ZN6marisa9ExceptionD2Ev) #10
  unreachable

27:                                               ; No predecessors!
  br label %28

28:                                               ; preds = %27, %21, %4
  %29 = load i64, ptr %7, align 8
  %30 = icmp ugt i64 %29, 4294967295
  store i1 false, ptr %14, align 1
  br i1 %30, label %31, label %35

31:                                               ; preds = %28
  %32 = call ptr @__cxa_allocate_exception(i64 32) #7
  store ptr %32, ptr %13, align 8
  store i1 true, ptr %14, align 1
  invoke void @_ZN6marisa9ExceptionC2EPKci18marisa_error_code_S2_(ptr noundef nonnull align 8 dereferenceable(32) %32, ptr noundef @.str, i32 noundef 62, i32 noundef 7, ptr noundef @.str.3)
          to label %33 unwind label %61

33:                                               ; preds = %31
  call void @__cxa_throw(ptr %32, ptr @_ZTIN6marisa9ExceptionE, ptr @_ZN6marisa9ExceptionD2Ev) #10
  unreachable

34:                                               ; No predecessors!
  br label %35

35:                                               ; preds = %34, %28
  %36 = load i64, ptr %7, align 8
  %37 = call noundef ptr @_ZN6marisa6Keyset7reserveEm(ptr noundef nonnull align 8 dereferenceable(104) %18, i64 noundef %36)
  store ptr %37, ptr %15, align 8
  store i64 0, ptr %16, align 8
  br label %38

38:                                               ; preds = %50, %35
  %39 = load i64, ptr %16, align 8
  %40 = load i64, ptr %7, align 8
  %41 = icmp ult i64 %39, %40
  br i1 %41, label %42, label %69

42:                                               ; preds = %38
  %43 = load ptr, ptr %6, align 8
  %44 = load i64, ptr %16, align 8
  %45 = getelementptr inbounds i8, ptr %43, i64 %44
  %46 = load i8, ptr %45, align 1
  %47 = load ptr, ptr %15, align 8
  %48 = load i64, ptr %16, align 8
  %49 = getelementptr inbounds i8, ptr %47, i64 %48
  store i8 %46, ptr %49, align 1
  br label %50

50:                                               ; preds = %42
  %51 = load i64, ptr %16, align 8
  %52 = add i64 %51, 1
  store i64 %52, ptr %16, align 8
  br label %38, !llvm.loop !9

53:                                               ; preds = %24
  %54 = landingpad { ptr, i32 }
          cleanup
  %55 = extractvalue { ptr, i32 } %54, 0
  store ptr %55, ptr %11, align 8
  %56 = extractvalue { ptr, i32 } %54, 1
  store i32 %56, ptr %12, align 4
  %57 = load i1, ptr %10, align 1
  br i1 %57, label %58, label %60

58:                                               ; preds = %53
  %59 = load ptr, ptr %9, align 8
  call void @__cxa_free_exception(ptr %59) #7
  br label %60

60:                                               ; preds = %58, %53
  br label %91

61:                                               ; preds = %31
  %62 = landingpad { ptr, i32 }
          cleanup
  %63 = extractvalue { ptr, i32 } %62, 0
  store ptr %63, ptr %11, align 8
  %64 = extractvalue { ptr, i32 } %62, 1
  store i32 %64, ptr %12, align 4
  %65 = load i1, ptr %14, align 1
  br i1 %65, label %66, label %68

66:                                               ; preds = %61
  %67 = load ptr, ptr %13, align 8
  call void @__cxa_free_exception(ptr %67) #7
  br label %68

68:                                               ; preds = %66, %61
  br label %91

69:                                               ; preds = %38
  %70 = getelementptr inbounds %"class.marisa::Keyset", ptr %18, i32 0, i32 6
  %71 = getelementptr inbounds %"class.marisa::Keyset", ptr %18, i32 0, i32 11
  %72 = load i64, ptr %71, align 8
  %73 = udiv i64 %72, 256
  %74 = call noundef nonnull align 8 dereferenceable(8) ptr @_ZNK6marisa12scoped_arrayINS0_INS_3KeyEEEEixEm(ptr noundef nonnull align 8 dereferenceable(8) %70, i64 noundef %73)
  %75 = getelementptr inbounds %"class.marisa::Keyset", ptr %18, i32 0, i32 11
  %76 = load i64, ptr %75, align 8
  %77 = urem i64 %76, 256
  %78 = call noundef nonnull align 8 dereferenceable(16) ptr @_ZNK6marisa12scoped_arrayINS_3KeyEEixEm(ptr noundef nonnull align 8 dereferenceable(8) %74, i64 noundef %77)
  store ptr %78, ptr %17, align 8
  %79 = load ptr, ptr %17, align 8
  %80 = load ptr, ptr %15, align 8
  %81 = load i64, ptr %7, align 8
  call void @_ZN6marisa3Key7set_strEPKcm(ptr noundef nonnull align 8 dereferenceable(16) %79, ptr noundef %80, i64 noundef %81)
  %82 = load ptr, ptr %17, align 8
  %83 = load float, ptr %8, align 4
  call void @_ZN6marisa3Key10set_weightEf(ptr noundef nonnull align 8 dereferenceable(16) %82, float noundef %83)
  %84 = getelementptr inbounds %"class.marisa::Keyset", ptr %18, i32 0, i32 11
  %85 = load i64, ptr %84, align 8
  %86 = add i64 %85, 1
  store i64 %86, ptr %84, align 8
  %87 = load i64, ptr %7, align 8
  %88 = getelementptr inbounds %"class.marisa::Keyset", ptr %18, i32 0, i32 12
  %89 = load i64, ptr %88, align 8
  %90 = add i64 %89, %87
  store i64 %90, ptr %88, align 8
  ret void

91:                                               ; preds = %68, %60
  %92 = load ptr, ptr %11, align 8
  %93 = load i32, ptr %12, align 4
  %94 = insertvalue { ptr, i32 } poison, ptr %92, 0
  %95 = insertvalue { ptr, i32 } %94, i32 %93, 1
  resume { ptr, i32 } %95
}