; Function Attrs: mustprogress uwtable
define void @_ZN6marisa6Keyset9push_backEPKcmf(ptr nocapture noundef nonnull align 8 dereferenceable(104) %0, ptr noundef readonly %1, i64 noundef %2, float noundef %3) local_unnamed_addr #2 align 2 personality ptr @__gxx_personality_v0 {
  %5 = icmp eq ptr %1, null
  %6 = icmp ne i64 %2, 0
  %or.cond = and i1 %5, %6
  br i1 %or.cond, label %7, label %13

7:                                                ; preds = %4
  %8 = tail call ptr @__cxa_allocate_exception(i64 32) #11
  store ptr getelementptr inbounds inrange(-16, 24) ({ [5 x ptr] }, ptr @_ZTVN6marisa9ExceptionE, i64 0, i32 0, i64 2), ptr %8, align 8
  %9 = getelementptr inbounds i8, ptr %8, i64 8
  store ptr @.str, ptr %9, align 8
  %10 = getelementptr inbounds i8, ptr %8, i64 16
  store i32 61, ptr %10, align 8
  %11 = getelementptr inbounds i8, ptr %8, i64 20
  store i32 2, ptr %11, align 4
  %12 = getelementptr inbounds i8, ptr %8, i64 24
  store ptr @.str.2, ptr %12, align 8
  tail call void @__cxa_throw(ptr nonnull %8, ptr nonnull @_ZTIN6marisa9ExceptionE, ptr nonnull @_ZN6marisa9ExceptionD2Ev) #12
  unreachable

13:                                               ; preds = %4
  %14 = icmp ugt i64 %2, 4294967295
  br i1 %14, label %15, label %21

15:                                               ; preds = %13
  %16 = tail call ptr @__cxa_allocate_exception(i64 32) #11
  store ptr getelementptr inbounds inrange(-16, 24) ({ [5 x ptr] }, ptr @_ZTVN6marisa9ExceptionE, i64 0, i32 0, i64 2), ptr %16, align 8
  %17 = getelementptr inbounds i8, ptr %16, i64 8
  store ptr @.str, ptr %17, align 8
  %18 = getelementptr inbounds i8, ptr %16, i64 16
  store i32 62, ptr %18, align 8
  %19 = getelementptr inbounds i8, ptr %16, i64 20
  store i32 7, ptr %19, align 4
  %20 = getelementptr inbounds i8, ptr %16, i64 24
  store ptr @.str.3, ptr %20, align 8
  tail call void @__cxa_throw(ptr nonnull %16, ptr nonnull @_ZTIN6marisa9ExceptionE, ptr nonnull @_ZN6marisa9ExceptionD2Ev) #12
  unreachable

21:                                               ; preds = %13
  %22 = getelementptr inbounds i8, ptr %0, i64 88
  %23 = load i64, ptr %22, align 8
  %24 = lshr i64 %23, 8
  %25 = getelementptr inbounds i8, ptr %0, i64 56
  %26 = load i64, ptr %25, align 8
  %27 = icmp eq i64 %24, %26
  br i1 %27, label %28, label %29

28:                                               ; preds = %21
  tail call void @_ZN6marisa6Keyset16append_key_blockEv(ptr noundef nonnull align 8 dereferenceable(104) %0)
  br label %29

29:                                               ; preds = %28, %21
  %30 = icmp ugt i64 %2, 1024
  br i1 %30, label %_ZN6marisa6Keyset7reserveEm.exit.thread, label %38

_ZN6marisa6Keyset7reserveEm.exit.thread:          ; preds = %29
  tail call void @_ZN6marisa6Keyset18append_extra_blockEm(ptr noundef nonnull align 8 dereferenceable(104) %0, i64 noundef %2)
  %31 = getelementptr inbounds i8, ptr %0, i64 24
  %32 = getelementptr inbounds i8, ptr %0, i64 32
  %33 = load i64, ptr %32, align 8
  %34 = load ptr, ptr %31, align 8
  %35 = getelementptr %"class.marisa::scoped_array.2", ptr %34, i64 %33
  %36 = getelementptr i8, ptr %35, i64 -8
  %37 = load ptr, ptr %36, align 8
  br label %.lr.ph.preheader

38:                                               ; preds = %29
  %39 = getelementptr inbounds i8, ptr %0, i64 80
  %40 = load i64, ptr %39, align 8
  %41 = icmp ult i64 %40, %2
  br i1 %41, label %_ZN6marisa6Keyset7reserveEm.exit.thread24, label %_ZN6marisa6Keyset7reserveEm.exit

_ZN6marisa6Keyset7reserveEm.exit.thread24:        ; preds = %38
  tail call void @_ZN6marisa6Keyset17append_base_blockEv(ptr noundef nonnull align 8 dereferenceable(104) %0)
  %.pre.i = load i64, ptr %39, align 8
  %42 = getelementptr inbounds i8, ptr %0, i64 72
  %43 = load ptr, ptr %42, align 8
  %44 = getelementptr inbounds i8, ptr %43, i64 %2
  store ptr %44, ptr %42, align 8
  %45 = sub i64 %.pre.i, %2
  store i64 %45, ptr %39, align 8
  br label %.lr.ph.preheader

_ZN6marisa6Keyset7reserveEm.exit:                 ; preds = %38
  %46 = getelementptr inbounds i8, ptr %0, i64 72
  %47 = load ptr, ptr %46, align 8
  %48 = getelementptr inbounds i8, ptr %47, i64 %2
  store ptr %48, ptr %46, align 8
  %49 = sub i64 %40, %2
  store i64 %49, ptr %39, align 8
  %.not = icmp eq i64 %2, 0
  br i1 %.not, label %._crit_edge, label %.lr.ph.preheader

.lr.ph.preheader:                                 ; preds = %_ZN6marisa6Keyset7reserveEm.exit.thread24, %_ZN6marisa6Keyset7reserveEm.exit.thread, %_ZN6marisa6Keyset7reserveEm.exit
  %.0.i22 = phi ptr [ %37, %_ZN6marisa6Keyset7reserveEm.exit.thread ], [ %47, %_ZN6marisa6Keyset7reserveEm.exit ], [ %43, %_ZN6marisa6Keyset7reserveEm.exit.thread24 ]
  br label %.lr.ph

.lr.ph:                                           ; preds = %.lr.ph.preheader, %.lr.ph
  %.019 = phi i64 [ %53, %.lr.ph ], [ 0, %.lr.ph.preheader ]
  %50 = getelementptr inbounds i8, ptr %1, i64 %.019
  %51 = load i8, ptr %50, align 1
  %52 = getelementptr inbounds i8, ptr %.0.i22, i64 %.019
  store i8 %51, ptr %52, align 1
  %53 = add nuw nsw i64 %.019, 1
  %exitcond.not = icmp eq i64 %53, %2
  br i1 %exitcond.not, label %._crit_edge, label %.lr.ph, !llvm.loop !9

._crit_edge:                                      ; preds = %.lr.ph, %_ZN6marisa6Keyset7reserveEm.exit
  %.0.i23 = phi ptr [ %47, %_ZN6marisa6Keyset7reserveEm.exit ], [ %.0.i22, %.lr.ph ]
  %54 = getelementptr inbounds i8, ptr %0, i64 48
  %55 = load i64, ptr %22, align 8
  %56 = lshr i64 %55, 8
  %57 = load ptr, ptr %54, align 8
  %58 = getelementptr inbounds %"class.marisa::scoped_array.1", ptr %57, i64 %56
  %59 = and i64 %55, 255
  %60 = load ptr, ptr %58, align 8
  %61 = getelementptr inbounds %"class.marisa::Key", ptr %60, i64 %59
  store ptr %.0.i23, ptr %61, align 8
  %62 = trunc nuw i64 %2 to i32
  %63 = getelementptr inbounds i8, ptr %61, i64 8
  store i32 %62, ptr %63, align 8
  %64 = getelementptr inbounds i8, ptr %61, i64 12
  store float %3, ptr %64, align 4
  %65 = load <2 x i64>, ptr %22, align 8
  %66 = insertelement <2 x i64> <i64 1, i64 poison>, i64 %2, i64 1
  %67 = add <2 x i64> %65, %66
  store <2 x i64> %67, ptr %22, align 8
  ret void
}